target datalayout = "e-m:e-p270:32:32-p271:32:32-p272:64:64-i64:64-i128:128-f80:128-n8:16:32:64-S128"
target triple = "x86_64-pc-linux-gnu"

%struct.config_file_t = type { i8, i8, ptr, ptr, i32, ptr }

; Function Attrs: nounwind uwtable
define dso_local void @destroy_config_file(ptr noundef %0) #0 {
  %2 = alloca ptr, align 8
  %3 = alloca ptr, align 8
  %4 = alloca i32, align 4
  store ptr %0, ptr %2, align 8
  call void @llvm.lifetime.start.p0(i64 8, ptr %3) #9
  %5 = load ptr, ptr %2, align 8
  store ptr %5, ptr %3, align 8
  %6 = load ptr, ptr %3, align 8
  %7 = icmp ne ptr %6, null
  br i1 %7, label %9, label %8

8:                                                ; preds = %1
  store i32 1, ptr %4, align 4
  br label %26

9:                                                ; preds = %1
  %10 = load ptr, ptr %3, align 8
  %11 = getelementptr inbounds nuw %struct.config_file_t, ptr %10, i32 0, i32 5
  %12 = load ptr, ptr %11, align 8
  %13 = icmp ne ptr %12, null
  br i1 %13, label %14, label %19

14:                                               ; preds = %9
  %15 = load ptr, ptr %3, align 8
  %16 = getelementptr inbounds nuw %struct.config_file_t, ptr %15, i32 0, i32 4
  %17 = load i32, ptr %16, align 8
  %18 = call i32 @close(i32 noundef %17)
  br label %19

19:                                               ; preds = %14, %9
  %20 = load ptr, ptr %3, align 8
  %21 = getelementptr inbounds nuw %struct.config_file_t, ptr %20, i32 0, i32 5
  call void @slurm_xfree(ptr noundef %21)
  %22 = load ptr, ptr %3, align 8
  %23 = getelementptr inbounds nuw %struct.config_file_t, ptr %22, i32 0, i32 2
  call void @slurm_xfree(ptr noundef %23)
  %24 = load ptr, ptr %3, align 8
  %25 = getelementptr inbounds nuw %struct.config_file_t, ptr %24, i32 0, i32 3
  call void @slurm_xfree(ptr noundef %25)
  call void @slurm_xfree(ptr noundef %3)
  store i32 0, ptr %4, align 4
  br label %26

26:                                               ; preds = %19, %8
  call void @llvm.lifetime.end.p0(i64 8, ptr %3) #9
  %27 = load i32, ptr %4, align 4
  switch i32 %27, label %29 [
    i32 0, label %28
    i32 1, label %28
  ]

28:                                               ; preds = %26, %26
  ret void

29:                                               ; preds = %26
  unreachable
}