; Function Attrs: nounwind uwtable
define dso_local void @destroy_config_file(ptr noundef %0) #0 {
  %2 = alloca ptr, align 8
  call void @llvm.lifetime.start.p0(i64 8, ptr nonnull %2) #12
  store ptr %0, ptr %2, align 8
  %.not = icmp eq ptr %0, null
  br i1 %.not, label %13, label %3

3:                                                ; preds = %1
  %4 = getelementptr inbounds nuw i8, ptr %0, i64 32
  %5 = load ptr, ptr %4, align 8
  %.not1 = icmp eq ptr %5, null
  br i1 %.not1, label %10, label %6

6:                                                ; preds = %3
  %7 = getelementptr inbounds nuw i8, ptr %0, i64 24
  %8 = load i32, ptr %7, align 8
  %9 = tail call i32 @close(i32 noundef %8) #12
  br label %10

10:                                               ; preds = %6, %3
  tail call void @slurm_xfree(ptr noundef nonnull %4) #12
  %11 = getelementptr inbounds nuw i8, ptr %0, i64 8
  tail call void @slurm_xfree(ptr noundef nonnull %11) #12
  %12 = getelementptr inbounds nuw i8, ptr %0, i64 16
  tail call void @slurm_xfree(ptr noundef nonnull %12) #12
  call void @slurm_xfree(ptr noundef nonnull %2) #12
  br label %13

13:                                               ; preds = %1, %10
  call void @llvm.lifetime.end.p0(i64 8, ptr nonnull %2) #12
  ret void
}